; Function Attrs: mustprogress nounwind uwtable
define hidden void @_ZN20SafepointSynchronize16disarm_safepointEv() local_unnamed_addr #2 align 2 {
  %1 = alloca %class.JavaThreadIteratorWithHandle, align 8
  %2 = load volatile i64, ptr @_ZN20SafepointSynchronize18_safepoint_counterE, align 8
  %3 = getelementptr inbounds i8, ptr %1, i64 8
  %4 = tail call align 8 ptr @llvm.threadlocal.address.p0(ptr align 8 @_ZN6Thread12_thr_currentE)
  %5 = load ptr, ptr %4, align 8
  call void @_ZN17ThreadsListHandleC1EP6Thread(ptr noundef nonnull align 8 dereferenceable(56) %3, ptr noundef %5) #16
  %6 = getelementptr inbounds i8, ptr %1, i64 64
  store i32 0, ptr %6, align 8
  call void asm sideeffect "lock; addl $$0,0(%rsp)", "~{cc},~{memory},~{dirflag},~{fpsr},~{flags}"() #16, !srcloc !14
  call void asm sideeffect "", "~{memory},~{dirflag},~{fpsr},~{flags}"() #16, !srcloc !6
  store volatile i32 0, ptr @_ZN20SafepointSynchronize6_stateE, align 4
  %7 = load volatile i64, ptr @_ZN20SafepointSynchronize18_safepoint_counterE, align 8
  %8 = add i64 %7, 1
  call void asm sideeffect "", "~{memory},~{dirflag},~{fpsr},~{flags}"() #16, !srcloc !6
  store volatile i64 %8, ptr @_ZN20SafepointSynchronize18_safepoint_counterE, align 8
  call void asm sideeffect "lock; addl $$0,0(%rsp)", "~{cc},~{memory},~{dirflag},~{fpsr},~{flags}"() #16, !srcloc !14
  call void asm sideeffect "", "~{memory},~{dirflag},~{fpsr},~{flags}"() #16, !srcloc !6
  store i32 0, ptr %6, align 8
  %9 = getelementptr inbounds i8, ptr %1, i64 24
  %10 = load ptr, ptr %9, align 8
  %11 = getelementptr inbounds i8, ptr %10, i64 4
  %12 = load i32, ptr %11, align 4
  %.not.i5.not = icmp eq i32 %12, 0
  br i1 %.not.i5.not, label %_ZN28JavaThreadIteratorWithHandle4nextEv.exit.thread, label %_ZN28JavaThreadIteratorWithHandle4nextEv.exit

_ZN28JavaThreadIteratorWithHandle4nextEv.exit:    ; preds = %0, %21
  %13 = phi ptr [ %26, %21 ], [ %10, %0 ]
  %14 = phi i32 [ %25, %21 ], [ 0, %0 ]
  %15 = add nuw i32 %14, 1
  store i32 %15, ptr %6, align 8
  %16 = getelementptr inbounds i8, ptr %13, i64 16
  %17 = load ptr, ptr %16, align 8
  %18 = zext i32 %14 to i64
  %19 = getelementptr inbounds ptr, ptr %17, i64 %18
  %20 = load ptr, ptr %19, align 8
  %.not = icmp eq ptr %20, null
  br i1 %.not, label %_ZN28JavaThreadIteratorWithHandle4nextEv.exit.thread, label %21

21:                                               ; preds = %_ZN28JavaThreadIteratorWithHandle4nextEv.exit
  %22 = getelementptr inbounds i8, ptr %20, i64 1112
  %23 = load ptr, ptr %22, align 8
  %24 = getelementptr inbounds i8, ptr %23, i64 16
  store i8 0, ptr %24, align 8
  %25 = load i32, ptr %6, align 8
  %26 = load ptr, ptr %9, align 8
  %27 = getelementptr inbounds i8, ptr %26, i64 4
  %28 = load i32, ptr %27, align 4
  %.not.i = icmp ult i32 %25, %28
  br i1 %.not.i, label %_ZN28JavaThreadIteratorWithHandle4nextEv.exit, label %_ZN28JavaThreadIteratorWithHandle4nextEv.exit.thread, !llvm.loop !15

_ZN28JavaThreadIteratorWithHandle4nextEv.exit.thread: ; preds = %_ZN28JavaThreadIteratorWithHandle4nextEv.exit, %21, %0
  call void @_ZN17ThreadsListHandleD1Ev(ptr noundef nonnull align 8 dereferenceable(56) %3) #16
  %29 = load ptr, ptr @Threads_lock, align 8
  call void @_ZN5Mutex6unlockEv(ptr noundef nonnull align 8 dereferenceable(104) %29) #16
  %30 = load ptr, ptr @_ZN20SafepointSynchronize13_wait_barrierE, align 8
  %31 = getelementptr inbounds i8, ptr %30, i64 4
  call void @_ZN16LinuxWaitBarrier6disarmEv(ptr noundef nonnull align 4 dereferenceable(4) %31) #16
  ret void
}